target datalayout = "e-m:e-p270:32:32-p271:32:32-p272:64:64-i64:64-i128:128-f80:128-n8:16:32:64-S128"
target triple = "x86_64-pc-linux-gnu"

%struct.SlabContext = type { %struct.MemoryContextData, i32, i32, i32, i32, i32, i32, %struct.dclist_head, [3 x %struct.dlist_head] }
%struct.MemoryContextData = type { i32, i8, i8, i64, ptr, ptr, ptr, ptr, ptr, ptr, ptr, ptr }
%struct.dclist_head = type { %struct.dlist_head, i32 }
%struct.dlist_head = type { %struct.dlist_node }
%struct.dlist_node = type { ptr, ptr }
%struct.SlabBlock = type { ptr, i32, i32, ptr, ptr, %struct.dlist_node }
%struct.dlist_iter = type { ptr, ptr }
%struct.MemoryContextCounters = type { i64, i64, i64, i64 }

@.str.6 = private unnamed_addr constant [74 x i8] c"%zu total in %zu blocks; %u empty blocks; %zu free (%zu chunks); %zu used\00", align 1

; Function Attrs: inlinehint nounwind uwtable
define internal i32 @dclist_count(ptr noundef %0) #5 {
  %2 = alloca ptr, align 8
  store ptr %0, ptr %2, align 8
  %3 = load ptr, ptr %2, align 8
  %4 = getelementptr inbounds nuw %struct.dclist_head, ptr %3, i32 0, i32 1
  %5 = load i32, ptr %4, align 8
  ret i32 %5
}

; Function Attrs: nounwind uwtable
define dso_local void @SlabStats(ptr noundef %0, ptr noundef %1, ptr noundef %2, ptr noundef %3, i1 noundef zeroext %4) #0 {
  %6 = alloca ptr, align 8
  %7 = alloca ptr, align 8
  %8 = alloca ptr, align 8
  %9 = alloca ptr, align 8
  %10 = alloca i8, align 1
  %11 = alloca ptr, align 8
  %12 = alloca i64, align 8
  %13 = alloca i64, align 8
  %14 = alloca i64, align 8
  %15 = alloca i64, align 8
  %16 = alloca i32, align 4
  %17 = alloca %struct.dlist_iter, align 8
  %18 = alloca i32, align 4
  %19 = alloca i32, align 4
  %20 = alloca ptr, align 8
  %21 = alloca i32, align 4
  %22 = alloca i32, align 4
  %23 = alloca [200 x i8], align 16
  store ptr %0, ptr %6, align 8
  store ptr %1, ptr %7, align 8
  store ptr %2, ptr %8, align 8
  store ptr %3, ptr %9, align 8
  %24 = zext i1 %4 to i8
  store i8 %24, ptr %10, align 1
  call void @llvm.lifetime.start.p0(i64 8, ptr %11) #10
  %25 = load ptr, ptr %6, align 8
  store ptr %25, ptr %11, align 8
  call void @llvm.lifetime.start.p0(i64 8, ptr %12) #10
  store i64 0, ptr %12, align 8
  call void @llvm.lifetime.start.p0(i64 8, ptr %13) #10
  store i64 0, ptr %13, align 8
  call void @llvm.lifetime.start.p0(i64 8, ptr %14) #10
  call void @llvm.lifetime.start.p0(i64 8, ptr %15) #10
  store i64 0, ptr %15, align 8
  call void @llvm.lifetime.start.p0(i64 4, ptr %16) #10
  store i64 176, ptr %14, align 8
  %26 = load ptr, ptr %11, align 8
  %27 = getelementptr inbounds nuw %struct.SlabContext, ptr %26, i32 0, i32 7
  %28 = call i32 @dclist_count(ptr noundef %27)
  %29 = load ptr, ptr %11, align 8
  %30 = getelementptr inbounds nuw %struct.SlabContext, ptr %29, i32 0, i32 3
  %31 = load i32, ptr %30, align 8
  %32 = mul i32 %28, %31
  %33 = zext i32 %32 to i64
  %34 = load i64, ptr %14, align 8
  %35 = add i64 %34, %33
  store i64 %35, ptr %14, align 8
  store i32 0, ptr %16, align 4
  br label %36

36:                                               ; preds = %116, %5
  %37 = load i32, ptr %16, align 4
  %38 = icmp slt i32 %37, 3
  br i1 %38, label %39, label %119

39:                                               ; preds = %36
  call void @llvm.lifetime.start.p0(i64 16, ptr %17) #10
  br label %40

40:                                               ; preds = %39
  br label %41

41:                                               ; preds = %40
  br label %42

42:                                               ; preds = %41
  store i32 1, ptr %18, align 4
  br label %43

43:                                               ; preds = %42
  br label %44

44:                                               ; preds = %43
  br label %45

45:                                               ; preds = %44
  store i32 1, ptr %19, align 4
  %46 = load ptr, ptr %11, align 8
  %47 = getelementptr inbounds nuw %struct.SlabContext, ptr %46, i32 0, i32 8
  %48 = load i32, ptr %16, align 4
  %49 = sext i32 %48 to i64
  %50 = getelementptr inbounds [3 x %struct.dlist_head], ptr %47, i64 0, i64 %49
  %51 = getelementptr inbounds nuw %struct.dlist_head, ptr %50, i32 0, i32 0
  %52 = getelementptr inbounds nuw %struct.dlist_iter, ptr %17, i32 0, i32 1
  store ptr %51, ptr %52, align 8
  %53 = getelementptr inbounds nuw %struct.dlist_iter, ptr %17, i32 0, i32 1
  %54 = load ptr, ptr %53, align 8
  %55 = getelementptr inbounds nuw %struct.dlist_node, ptr %54, i32 0, i32 1
  %56 = load ptr, ptr %55, align 8
  %57 = icmp ne ptr %56, null
  br i1 %57, label %58, label %63

58:                                               ; preds = %45
  %59 = getelementptr inbounds nuw %struct.dlist_iter, ptr %17, i32 0, i32 1
  %60 = load ptr, ptr %59, align 8
  %61 = getelementptr inbounds nuw %struct.dlist_node, ptr %60, i32 0, i32 1
  %62 = load ptr, ptr %61, align 8
  br label %66

63:                                               ; preds = %45
  %64 = getelementptr inbounds nuw %struct.dlist_iter, ptr %17, i32 0, i32 1
  %65 = load ptr, ptr %64, align 8
  br label %66

66:                                               ; preds = %63, %58
  %67 = phi ptr [ %62, %58 ], [ %65, %63 ]
  %68 = getelementptr inbounds nuw %struct.dlist_iter, ptr %17, i32 0, i32 0
  store ptr %67, ptr %68, align 8
  br label %69

69:                                               ; preds = %109, %66
  %70 = getelementptr inbounds nuw %struct.dlist_iter, ptr %17, i32 0, i32 0
  %71 = load ptr, ptr %70, align 8
  %72 = getelementptr inbounds nuw %struct.dlist_iter, ptr %17, i32 0, i32 1
  %73 = load ptr, ptr %72, align 8
  %74 = icmp ne ptr %71, %73
  br i1 %74, label %75, label %115

75:                                               ; preds = %69
  call void @llvm.lifetime.start.p0(i64 8, ptr %20) #10
  br label %76

76:                                               ; preds = %75
  br label %77

77:                                               ; preds = %76
  br label %78

78:                                               ; preds = %77
  store i32 1, ptr %21, align 4
  br label %79

79:                                               ; preds = %78
  br label %80

80:                                               ; preds = %79
  br label %81

81:                                               ; preds = %80
  store i32 1, ptr %22, align 4
  %82 = getelementptr inbounds nuw %struct.dlist_iter, ptr %17, i32 0, i32 0
  %83 = load ptr, ptr %82, align 8
  %84 = getelementptr inbounds i8, ptr %83, i64 -32
  store ptr %84, ptr %20, align 8
  %85 = load i64, ptr %12, align 8
  %86 = add i64 %85, 1
  store i64 %86, ptr %12, align 8
  %87 = load ptr, ptr %11, align 8
  %88 = getelementptr inbounds nuw %struct.SlabContext, ptr %87, i32 0, i32 3
  %89 = load i32, ptr %88, align 8
  %90 = zext i32 %89 to i64
  %91 = load i64, ptr %14, align 8
  %92 = add i64 %91, %90
  store i64 %92, ptr %14, align 8
  %93 = load ptr, ptr %11, align 8
  %94 = getelementptr inbounds nuw %struct.SlabContext, ptr %93, i32 0, i32 2
  %95 = load i32, ptr %94, align 4
  %96 = load ptr, ptr %20, align 8
  %97 = getelementptr inbounds nuw %struct.SlabBlock, ptr %96, i32 0, i32 1
  %98 = load i32, ptr %97, align 8
  %99 = mul i32 %95, %98
  %100 = zext i32 %99 to i64
  %101 = load i64, ptr %15, align 8
  %102 = add i64 %101, %100
  store i64 %102, ptr %15, align 8
  %103 = load ptr, ptr %20, align 8
  %104 = getelementptr inbounds nuw %struct.SlabBlock, ptr %103, i32 0, i32 1
  %105 = load i32, ptr %104, align 8
  %106 = sext i32 %105 to i64
  %107 = load i64, ptr %13, align 8
  %108 = add i64 %107, %106
  store i64 %108, ptr %13, align 8
  call void @llvm.lifetime.end.p0(i64 8, ptr %20) #10
  br label %109

109:                                              ; preds = %81
  %110 = getelementptr inbounds nuw %struct.dlist_iter, ptr %17, i32 0, i32 0
  %111 = load ptr, ptr %110, align 8
  %112 = getelementptr inbounds nuw %struct.dlist_node, ptr %111, i32 0, i32 1
  %113 = load ptr, ptr %112, align 8
  %114 = getelementptr inbounds nuw %struct.dlist_iter, ptr %17, i32 0, i32 0
  store ptr %113, ptr %114, align 8
  br label %69, !llvm.loop !11

115:                                              ; preds = %69
  call void @llvm.lifetime.end.p0(i64 16, ptr %17) #10
  br label %116

116:                                              ; preds = %115
  %117 = load i32, ptr %16, align 4
  %118 = add i32 %117, 1
  store i32 %118, ptr %16, align 4
  br label %36, !llvm.loop !12

119:                                              ; preds = %36
  %120 = load ptr, ptr %7, align 8
  %121 = icmp ne ptr %120, null
  br i1 %121, label %122, label %141

122:                                              ; preds = %119
  call void @llvm.lifetime.start.p0(i64 200, ptr %23) #10
  %123 = getelementptr inbounds [200 x i8], ptr %23, i64 0, i64 0
  %124 = load i64, ptr %14, align 8
  %125 = load i64, ptr %12, align 8
  %126 = load ptr, ptr %11, align 8
  %127 = getelementptr inbounds nuw %struct.SlabContext, ptr %126, i32 0, i32 7
  %128 = call i32 @dclist_count(ptr noundef %127)
  %129 = load i64, ptr %15, align 8
  %130 = load i64, ptr %13, align 8
  %131 = load i64, ptr %14, align 8
  %132 = load i64, ptr %15, align 8
  %133 = sub i64 %131, %132
  %134 = call i32 (ptr, i64, ptr, ...) @pg_snprintf(ptr noundef %123, i64 noundef 200, ptr noundef @.str.6, i64 noundef %124, i64 noundef %125, i32 noundef %128, i64 noundef %129, i64 noundef %130, i64 noundef %133)
  %135 = load ptr, ptr %7, align 8
  %136 = load ptr, ptr %6, align 8
  %137 = load ptr, ptr %8, align 8
  %138 = getelementptr inbounds [200 x i8], ptr %23, i64 0, i64 0
  %139 = load i8, ptr %10, align 1, !range !13, !noundef !14
  %140 = trunc i8 %139 to i1
  call void %135(ptr noundef %136, ptr noundef %137, ptr noundef %138, i1 noundef zeroext %140)
  call void @llvm.lifetime.end.p0(i64 200, ptr %23) #10
  br label %141

141:                                              ; preds = %122, %119
  %142 = load ptr, ptr %9, align 8
  %143 = icmp ne ptr %142, null
  br i1 %143, label %144, label %165

144:                                              ; preds = %141
  %145 = load i64, ptr %12, align 8
  %146 = load ptr, ptr %9, align 8
  %147 = getelementptr inbounds nuw %struct.MemoryContextCounters, ptr %146, i32 0, i32 0
  %148 = load i64, ptr %147, align 8
  %149 = add i64 %148, %145
  store i64 %149, ptr %147, align 8
  %150 = load i64, ptr %13, align 8
  %151 = load ptr, ptr %9, align 8
  %152 = getelementptr inbounds nuw %struct.MemoryContextCounters, ptr %151, i32 0, i32 1
  %153 = load i64, ptr %152, align 8
  %154 = add i64 %153, %150
  store i64 %154, ptr %152, align 8
  %155 = load i64, ptr %14, align 8
  %156 = load ptr, ptr %9, align 8
  %157 = getelementptr inbounds nuw %struct.MemoryContextCounters, ptr %156, i32 0, i32 2
  %158 = load i64, ptr %157, align 8
  %159 = add i64 %158, %155
  store i64 %159, ptr %157, align 8
  %160 = load i64, ptr %15, align 8
  %161 = load ptr, ptr %9, align 8
  %162 = getelementptr inbounds nuw %struct.MemoryContextCounters, ptr %161, i32 0, i32 3
  %163 = load i64, ptr %162, align 8
  %164 = add i64 %163, %160
  store i64 %164, ptr %162, align 8
  br label %165

165:                                              ; preds = %144, %141
  call void @llvm.lifetime.end.p0(i64 4, ptr %16) #10
  call void @llvm.lifetime.end.p0(i64 8, ptr %15) #10
  call void @llvm.lifetime.end.p0(i64 8, ptr %14) #10
  call void @llvm.lifetime.end.p0(i64 8, ptr %13) #10
  call void @llvm.lifetime.end.p0(i64 8, ptr %12) #10
  call void @llvm.lifetime.end.p0(i64 8, ptr %11) #10
  ret void
}