; Function Attrs: nounwind uwtable
define dso_local void @SlabStats(ptr noundef %0, ptr noundef readonly captures(address_is_null) %1, ptr noundef %2, ptr noundef captures(address_is_null) %3, i1 noundef zeroext %4) local_unnamed_addr #0 {
  %6 = alloca [200 x i8], align 16
  %7 = getelementptr i8, ptr %0, i64 120
  %.val54 = load i32, ptr %7, align 8
  %8 = getelementptr inbounds nuw i8, ptr %0, i64 88
  %9 = load i32, ptr %8, align 8
  %10 = mul i32 %9, %.val54
  %11 = zext i32 %10 to i64
  %12 = add nuw nsw i64 %11, 176
  %13 = getelementptr inbounds nuw i8, ptr %0, i64 128
  %14 = zext i32 %9 to i64
  %15 = getelementptr inbounds nuw i8, ptr %0, i64 84
  br label %16

16:                                               ; preds = %5, %._crit_edge
  %indvars.iv = phi i64 [ 0, %5 ], [ %indvars.iv.next, %._crit_edge ]
  %.068 = phi i64 [ 0, %5 ], [ %.1.lcssa, %._crit_edge ]
  %.04167 = phi i64 [ 0, %5 ], [ %.142.lcssa, %._crit_edge ]
  %.04366 = phi i64 [ %12, %5 ], [ %.144.lcssa, %._crit_edge ]
  %.04565 = phi i64 [ 0, %5 ], [ %.146.lcssa, %._crit_edge ]
  %17 = getelementptr inbounds nuw [3 x %struct.dlist_head], ptr %13, i64 0, i64 %indvars.iv
  %18 = getelementptr inbounds nuw i8, ptr %17, i64 8
  %19 = load ptr, ptr %18, align 8
  %.not52 = icmp eq ptr %19, null
  %.not535569 = icmp eq ptr %19, %17
  %.not5355 = or i1 %.not52, %.not535569
  br i1 %.not5355, label %._crit_edge, label %.lr.ph

.lr.ph:                                           ; preds = %16
  %20 = load i32, ptr %15, align 4
  br label %21

21:                                               ; preds = %.lr.ph, %21
  %.160 = phi i64 [ %.068, %.lr.ph ], [ %22, %21 ]
  %.14259 = phi i64 [ %.04167, %.lr.ph ], [ %30, %21 ]
  %.14458 = phi i64 [ %.04366, %.lr.ph ], [ %23, %21 ]
  %.14657 = phi i64 [ %.04565, %.lr.ph ], [ %28, %21 ]
  %.sroa.0.056 = phi ptr [ %19, %.lr.ph ], [ %32, %21 ]
  %22 = add i64 %.160, 1
  %23 = add i64 %.14458, %14
  %24 = getelementptr inbounds i8, ptr %.sroa.0.056, i64 -24
  %25 = load i32, ptr %24, align 8
  %26 = mul i32 %25, %20
  %27 = zext i32 %26 to i64
  %28 = add i64 %.14657, %27
  %29 = sext i32 %25 to i64
  %30 = add i64 %.14259, %29
  %31 = getelementptr inbounds nuw i8, ptr %.sroa.0.056, i64 8
  %32 = load ptr, ptr %31, align 8
  %.not53 = icmp eq ptr %32, %17
  br i1 %.not53, label %._crit_edge, label %21, !llvm.loop !13

._crit_edge:                                      ; preds = %21, %16
  %.146.lcssa = phi i64 [ %.04565, %16 ], [ %28, %21 ]
  %.144.lcssa = phi i64 [ %.04366, %16 ], [ %23, %21 ]
  %.142.lcssa = phi i64 [ %.04167, %16 ], [ %30, %21 ]
  %.1.lcssa = phi i64 [ %.068, %16 ], [ %22, %21 ]
  %indvars.iv.next = add nuw nsw i64 %indvars.iv, 1
  %exitcond.not = icmp eq i64 %indvars.iv.next, 3
  br i1 %exitcond.not, label %33, label %16, !llvm.loop !14

33:                                               ; preds = %._crit_edge
  %.not = icmp eq ptr %1, null
  br i1 %.not, label %37, label %34

34:                                               ; preds = %33
  call void @llvm.lifetime.start.p0(i64 200, ptr nonnull %6) #13
  %35 = sub i64 %.144.lcssa, %.146.lcssa
  %36 = call i32 (ptr, i64, ptr, ...) @pg_snprintf(ptr noundef nonnull %6, i64 noundef 200, ptr noundef nonnull @.str.6, i64 noundef %.144.lcssa, i64 noundef %.1.lcssa, i32 noundef %.val54, i64 noundef %.146.lcssa, i64 noundef %.142.lcssa, i64 noundef %35) #13
  call void %1(ptr noundef nonnull %0, ptr noundef %2, ptr noundef nonnull %6, i1 noundef zeroext %4) #13
  call void @llvm.lifetime.end.p0(i64 200, ptr nonnull %6) #13
  br label %37

37:                                               ; preds = %34, %33
  %.not51 = icmp eq ptr %3, null
  br i1 %.not51, label %50, label %38

38:                                               ; preds = %37
  %39 = load i64, ptr %3, align 8
  %40 = add i64 %39, %.1.lcssa
  store i64 %40, ptr %3, align 8
  %41 = getelementptr inbounds nuw i8, ptr %3, i64 8
  %42 = load i64, ptr %41, align 8
  %43 = add i64 %42, %.142.lcssa
  store i64 %43, ptr %41, align 8
  %44 = getelementptr inbounds nuw i8, ptr %3, i64 16
  %45 = load i64, ptr %44, align 8
  %46 = add i64 %45, %.144.lcssa
  store i64 %46, ptr %44, align 8
  %47 = getelementptr inbounds nuw i8, ptr %3, i64 24
  %48 = load i64, ptr %47, align 8
  %49 = add i64 %48, %.146.lcssa
  store i64 %49, ptr %47, align 8
  br label %50

50:                                               ; preds = %38, %37
  ret void
}